; Function Attrs: mustprogress uwtable
define noundef zeroext i1 @_ZNK32pxrInternal_v0_24__pxrReserved__20UsdSkelSkeletonQuery16_HasMappableAnimEv(ptr noundef nonnull align 8 dereferenceable(80) %0) local_unnamed_addr #0 align 2 {
  %2 = getelementptr inbounds nuw i8, ptr %0, i64 8
  %3 = load ptr, ptr %2, align 8
  %.not.i.i.i.not = icmp eq ptr %3, null
  br i1 %.not.i.i.i.not, label %8, label %4

4:                                                ; preds = %1
  %5 = getelementptr inbounds nuw i8, ptr %0, i64 16
  %6 = tail call noundef zeroext i1 @_ZNK32pxrInternal_v0_24__pxrReserved__17UsdSkelAnimMapper6IsNullEv(ptr noundef nonnull align 8 dereferenceable(60) %5)
  %7 = xor i1 %6, true
  br label %8

8:                                                ; preds = %4, %1
  %9 = phi i1 [ false, %1 ], [ %7, %4 ]
  ret i1 %9
}